; Function Attrs: mustprogress nounwind uwtable
define internal fastcc void @"_ZNSt10unique_ptrIiZNK2cv5gimpl12_GLOBAL__N_13$_0clEP20___itt_string_handleEUlPiE_ED2Ev"(ptr nocapture noundef nonnull align 8 dereferenceable(8) %0) unnamed_addr #4 align 2 personality ptr @__gxx_personality_v0 {
  %2 = load ptr, ptr %0, align 8
  %.not = icmp eq ptr %2, null
  br i1 %.not, label %"_ZZNK2cv5gimpl12_GLOBAL__N_13$_0clEP20___itt_string_handleENKUlPiE_clES5_.exit", label %3

3:                                                ; preds = %1
  %4 = load ptr, ptr @_ZN2cv5gimpl15gapi_itt_domainE, align 8
  %5 = load volatile i32, ptr %4, align 8
  %6 = icmp ne i32 %5, 0
  %7 = load ptr, ptr @__itt_task_end_ptr__3_0, align 8
  %8 = icmp ne ptr %7, null
  %or.cond.i = select i1 %6, i1 %8, i1 false
  br i1 %or.cond.i, label %9, label %"_ZZNK2cv5gimpl12_GLOBAL__N_13$_0clEP20___itt_string_handleENKUlPiE_clES5_.exit"

9:                                                ; preds = %3
  invoke void %7(ptr noundef nonnull %4)
          to label %"_ZZNK2cv5gimpl12_GLOBAL__N_13$_0clEP20___itt_string_handleENKUlPiE_clES5_.exit" unwind label %10

"_ZZNK2cv5gimpl12_GLOBAL__N_13$_0clEP20___itt_string_handleENKUlPiE_clES5_.exit": ; preds = %3, %9, %1
  store ptr null, ptr %0, align 8
  ret void

10:                                               ; preds = %9
  %11 = landingpad { ptr, i32 }
          catch ptr null
  %12 = extractvalue { ptr, i32 } %11, 0
  tail call void @__clang_call_terminate(ptr %12) #25
  unreachable
}